target datalayout = "e-m:e-p270:32:32-p271:32:32-p272:64:64-i64:64-i128:128-f80:128-n8:16:32:64-S128"
target triple = "x86_64-pc-linux-gnu"

%struct.job_resources = type { ptr, ptr, i32, ptr, ptr, ptr, ptr, ptr, i16, ptr, ptr, i32, i32, ptr, i32, ptr, i32, ptr, ptr, ptr, i16, i8 }

@.str.10 = private unnamed_addr constant [16 x i8] c"select_linear.c\00", align 1
@__func__._create_job_resources = private unnamed_addr constant [22 x i8] c"_create_job_resources\00", align 1

; Function Attrs: nounwind uwtable
define internal ptr @_create_job_resources(i32 noundef %0) #0 {
  %2 = alloca i32, align 4
  %3 = alloca ptr, align 8
  store i32 %0, ptr %2, align 4
  call void @llvm.lifetime.start.p0(i64 8, ptr %3) #8
  %4 = call ptr @create_job_resources()
  store ptr %4, ptr %3, align 8
  %5 = load i32, ptr %2, align 4
  %6 = sext i32 %5 to i64
  %7 = call ptr @slurm_xcalloc(i64 noundef %6, i64 noundef 4, i1 noundef zeroext true, i1 noundef zeroext false, ptr noundef @.str.10, i32 noundef 408, ptr noundef @__func__._create_job_resources)
  %8 = load ptr, ptr %3, align 8
  %9 = getelementptr inbounds nuw %struct.job_resources, ptr %8, i32 0, i32 4
  store ptr %7, ptr %9, align 8
  %10 = load i32, ptr %2, align 4
  %11 = sext i32 %10 to i64
  %12 = call ptr @slurm_xcalloc(i64 noundef %11, i64 noundef 2, i1 noundef zeroext true, i1 noundef zeroext false, ptr noundef @.str.10, i32 noundef 409, ptr noundef @__func__._create_job_resources)
  %13 = load ptr, ptr %3, align 8
  %14 = getelementptr inbounds nuw %struct.job_resources, ptr %13, i32 0, i32 3
  store ptr %12, ptr %14, align 8
  %15 = load i32, ptr %2, align 4
  %16 = sext i32 %15 to i64
  %17 = call ptr @slurm_xcalloc(i64 noundef %16, i64 noundef 2, i1 noundef zeroext true, i1 noundef zeroext false, ptr noundef @.str.10, i32 noundef 410, ptr noundef @__func__._create_job_resources)
  %18 = load ptr, ptr %3, align 8
  %19 = getelementptr inbounds nuw %struct.job_resources, ptr %18, i32 0, i32 5
  store ptr %17, ptr %19, align 8
  %20 = load i32, ptr %2, align 4
  %21 = sext i32 %20 to i64
  %22 = call ptr @slurm_xcalloc(i64 noundef %21, i64 noundef 2, i1 noundef zeroext true, i1 noundef zeroext false, ptr noundef @.str.10, i32 noundef 411, ptr noundef @__func__._create_job_resources)
  %23 = load ptr, ptr %3, align 8
  %24 = getelementptr inbounds nuw %struct.job_resources, ptr %23, i32 0, i32 6
  store ptr %22, ptr %24, align 8
  %25 = load i32, ptr %2, align 4
  %26 = sext i32 %25 to i64
  %27 = call ptr @slurm_xcalloc(i64 noundef %26, i64 noundef 8, i1 noundef zeroext true, i1 noundef zeroext false, ptr noundef @.str.10, i32 noundef 412, ptr noundef @__func__._create_job_resources)
  %28 = load ptr, ptr %3, align 8
  %29 = getelementptr inbounds nuw %struct.job_resources, ptr %28, i32 0, i32 9
  store ptr %27, ptr %29, align 8
  %30 = load i32, ptr %2, align 4
  %31 = sext i32 %30 to i64
  %32 = call ptr @slurm_xcalloc(i64 noundef %31, i64 noundef 8, i1 noundef zeroext true, i1 noundef zeroext false, ptr noundef @.str.10, i32 noundef 413, ptr noundef @__func__._create_job_resources)
  %33 = load ptr, ptr %3, align 8
  %34 = getelementptr inbounds nuw %struct.job_resources, ptr %33, i32 0, i32 10
  store ptr %32, ptr %34, align 8
  %35 = load i32, ptr %2, align 4
  %36 = load ptr, ptr %3, align 8
  %37 = getelementptr inbounds nuw %struct.job_resources, ptr %36, i32 0, i32 12
  store i32 %35, ptr %37, align 4
  %38 = load ptr, ptr %3, align 8
  call void @llvm.lifetime.end.p0(i64 8, ptr %3) #8
  ret ptr %38
}