; Function Attrs: nounwind uwtable
define internal fastcc ptr @_create_job_resources(i32 noundef %0) unnamed_addr #0 {
  %2 = tail call ptr @create_job_resources() #11
  %3 = sext i32 %0 to i64
  %4 = tail call ptr @slurm_xcalloc(i64 noundef %3, i64 noundef 4, i1 noundef zeroext true, i1 noundef zeroext false, ptr noundef nonnull @.str.10, i32 noundef 408, ptr noundef nonnull @__func__._create_job_resources) #11
  %5 = getelementptr inbounds nuw i8, ptr %2, i64 32
  store ptr %4, ptr %5, align 8
  %6 = tail call ptr @slurm_xcalloc(i64 noundef %3, i64 noundef 2, i1 noundef zeroext true, i1 noundef zeroext false, ptr noundef nonnull @.str.10, i32 noundef 409, ptr noundef nonnull @__func__._create_job_resources) #11
  %7 = getelementptr inbounds nuw i8, ptr %2, i64 24
  store ptr %6, ptr %7, align 8
  %8 = tail call ptr @slurm_xcalloc(i64 noundef %3, i64 noundef 2, i1 noundef zeroext true, i1 noundef zeroext false, ptr noundef nonnull @.str.10, i32 noundef 410, ptr noundef nonnull @__func__._create_job_resources) #11
  %9 = getelementptr inbounds nuw i8, ptr %2, i64 40
  store ptr %8, ptr %9, align 8
  %10 = tail call ptr @slurm_xcalloc(i64 noundef %3, i64 noundef 2, i1 noundef zeroext true, i1 noundef zeroext false, ptr noundef nonnull @.str.10, i32 noundef 411, ptr noundef nonnull @__func__._create_job_resources) #11
  %11 = getelementptr inbounds nuw i8, ptr %2, i64 48
  store ptr %10, ptr %11, align 8
  %12 = tail call ptr @slurm_xcalloc(i64 noundef %3, i64 noundef 8, i1 noundef zeroext true, i1 noundef zeroext false, ptr noundef nonnull @.str.10, i32 noundef 412, ptr noundef nonnull @__func__._create_job_resources) #11
  %13 = getelementptr inbounds nuw i8, ptr %2, i64 72
  store ptr %12, ptr %13, align 8
  %14 = tail call ptr @slurm_xcalloc(i64 noundef %3, i64 noundef 8, i1 noundef zeroext true, i1 noundef zeroext false, ptr noundef nonnull @.str.10, i32 noundef 413, ptr noundef nonnull @__func__._create_job_resources) #11
  %15 = getelementptr inbounds nuw i8, ptr %2, i64 80
  store ptr %14, ptr %15, align 8
  %16 = getelementptr inbounds nuw i8, ptr %2, i64 92
  store i32 %0, ptr %16, align 4
  ret ptr %2
}